target datalayout = "e-m:e-p270:32:32-p271:32:32-p272:64:64-i64:64-i128:128-f80:128-n8:16:32:64-S128"
target triple = "x86_64-pc-linux-gnu"

@.str.1 = private unnamed_addr constant [61 x i8] c"Possible integer overflow in memory allocation (1 * %zu + 1)\00", align 1

; Function Attrs: nounwind uwtable
define noalias ptr @_estrdup(ptr noundef %0) #0 {
  %2 = alloca ptr, align 8
  %3 = alloca i64, align 8
  %4 = alloca ptr, align 8
  store ptr %0, ptr %2, align 8
  %5 = load ptr, ptr %2, align 8
  %6 = call i64 @strlen(ptr noundef %5) #27
  store i64 %6, ptr %3, align 8
  %7 = load i64, ptr %3, align 8
  %8 = add i64 %7, 1
  %9 = icmp eq i64 %8, 0
  %10 = xor i1 %9, true
  %11 = xor i1 %10, true
  %12 = zext i1 %11 to i32
  %13 = sext i32 %12 to i64
  %14 = icmp ne i64 %13, 0
  br i1 %14, label %15, label %17

15:                                               ; preds = %1
  %16 = load i64, ptr %3, align 8
  call void (i32, ptr, ...) @zend_error_noreturn(i32 noundef 1, ptr noundef @.str.1, i64 noundef %16) #19
  unreachable

17:                                               ; preds = %1
  %18 = load i64, ptr %3, align 8
  %19 = add i64 %18, 1
  %20 = call noalias ptr @_emalloc(i64 noundef %19) #25
  store ptr %20, ptr %4, align 8
  %21 = load ptr, ptr %4, align 8
  %22 = load ptr, ptr %2, align 8
  %23 = load i64, ptr %3, align 8
  %24 = add i64 %23, 1
  call void @llvm.memcpy.p0.p0.i64(ptr align 1 %21, ptr align 1 %22, i64 %24, i1 false)
  %25 = load ptr, ptr %4, align 8
  ret ptr %25
}