; Function Attrs: nounwind uwtable
define noalias ptr @_estrdup(ptr nocapture noundef readonly %0) local_unnamed_addr #0 {
  %2 = tail call i64 @strlen(ptr noundef nonnull dereferenceable(1) %0) #44
  %3 = add i64 %2, 1
  %4 = icmp eq i64 %3, 0
  br i1 %4, label %5, label %6

5:                                                ; preds = %1
  tail call void (i32, ptr, ...) @zend_error_noreturn(i32 noundef 1, ptr noundef nonnull @.str.1, i64 noundef %2) #38
  unreachable

6:                                                ; preds = %1
  %7 = tail call noalias ptr @_emalloc(i64 noundef %3) #42
  tail call void @llvm.memcpy.p0.p0.i64(ptr align 1 %7, ptr align 1 %0, i64 %3, i1 false)
  ret ptr %7
}